target datalayout = "e-m:e-p270:32:32-p271:32:32-p272:64:64-i64:64-i128:128-f80:128-n8:16:32:64-S128"
target triple = "x86_64-pc-linux-gnu"

%struct.opj_codec_private = type { %union.anon, ptr, %struct.opj_event_mgr, i32, ptr, ptr, ptr, ptr }
%union.anon = type { %struct.opj_decompression }
%struct.opj_decompression = type { ptr, ptr, ptr, ptr, ptr, ptr, ptr, ptr, ptr, ptr, ptr, ptr }
%struct.opj_event_mgr = type { ptr, ptr, ptr, ptr, ptr, ptr }

@.str.2 = private unnamed_addr constant [91 x i8] c"Codec provided to the opj_decoder_set_strict_mode function is not a decompressor handler.\0A\00", align 1

; Function Attrs: nounwind uwtable
define hidden i32 @opj_decoder_set_strict_mode(ptr noundef %0, i32 noundef %1) #0 {
  %3 = alloca i32, align 4
  %4 = alloca ptr, align 8
  %5 = alloca i32, align 4
  %6 = alloca ptr, align 8
  %7 = alloca i32, align 4
  store ptr %0, ptr %4, align 8, !tbaa !3
  store i32 %1, ptr %5, align 4, !tbaa !20
  %8 = load ptr, ptr %4, align 8, !tbaa !3
  %9 = icmp ne ptr %8, null
  br i1 %9, label %10, label %30

10:                                               ; preds = %2
  call void @llvm.lifetime.start.p0(i64 8, ptr %6) #5
  %11 = load ptr, ptr %4, align 8, !tbaa !3
  store ptr %11, ptr %6, align 8, !tbaa !9
  %12 = load ptr, ptr %6, align 8, !tbaa !9
  %13 = getelementptr inbounds nuw %struct.opj_codec_private, ptr %12, i32 0, i32 3
  %14 = load i32, ptr %13, align 8, !tbaa !21
  %15 = icmp ne i32 %14, 0
  br i1 %15, label %20, label %16

16:                                               ; preds = %10
  %17 = load ptr, ptr %6, align 8, !tbaa !9
  %18 = getelementptr inbounds nuw %struct.opj_codec_private, ptr %17, i32 0, i32 2
  %19 = call i32 (ptr, i32, ptr, ...) @opj_event_msg(ptr noundef %18, i32 noundef 1, ptr noundef @.str.2)
  store i32 0, ptr %3, align 4
  store i32 1, ptr %7, align 4
  br label %29

20:                                               ; preds = %10
  %21 = load ptr, ptr %6, align 8, !tbaa !9
  %22 = getelementptr inbounds nuw %struct.opj_codec_private, ptr %21, i32 0, i32 0
  %23 = getelementptr inbounds nuw %struct.opj_decompression, ptr %22, i32 0, i32 7
  %24 = load ptr, ptr %23, align 8, !tbaa !25
  %25 = load ptr, ptr %6, align 8, !tbaa !9
  %26 = getelementptr inbounds nuw %struct.opj_codec_private, ptr %25, i32 0, i32 1
  %27 = load ptr, ptr %26, align 8, !tbaa !27
  %28 = load i32, ptr %5, align 4, !tbaa !20
  call void %24(ptr noundef %27, i32 noundef %28)
  store i32 1, ptr %3, align 4
  store i32 1, ptr %7, align 4
  br label %29

29:                                               ; preds = %20, %16
  call void @llvm.lifetime.end.p0(i64 8, ptr %6) #5
  br label %31

30:                                               ; preds = %2
  store i32 0, ptr %3, align 4
  br label %31

31:                                               ; preds = %30, %29
  %32 = load i32, ptr %3, align 4
  ret i32 %32
}