; Function Attrs: nounwind uwtable
define hidden range(i32 0, 2) i32 @opj_decoder_set_strict_mode(ptr noundef %0, i32 noundef %1) local_unnamed_addr #2 {
  %.not = icmp eq ptr %0, null
  br i1 %.not, label %14, label %3

3:                                                ; preds = %2
  %4 = getelementptr inbounds nuw i8, ptr %0, i64 152
  %5 = load i32, ptr %4, align 8, !tbaa !15
  %.not8 = icmp eq i32 %5, 0
  br i1 %.not8, label %6, label %9

6:                                                ; preds = %3
  %7 = getelementptr inbounds nuw i8, ptr %0, i64 104
  %8 = tail call i32 (ptr, i32, ptr, ...) @opj_event_msg(ptr noundef nonnull %7, i32 noundef 1, ptr noundef nonnull @.str.2) #8
  br label %14

9:                                                ; preds = %3
  %10 = getelementptr inbounds nuw i8, ptr %0, i64 56
  %11 = load ptr, ptr %10, align 8, !tbaa !19
  %12 = getelementptr inbounds nuw i8, ptr %0, i64 96
  %13 = load ptr, ptr %12, align 8, !tbaa !21
  tail call void %11(ptr noundef %13, i32 noundef %1) #8
  br label %14

14:                                               ; preds = %2, %6, %9
  %.1 = phi i32 [ 1, %9 ], [ 0, %6 ], [ 0, %2 ]
  ret i32 %.1
}